target datalayout = "e-m:e-p270:32:32-p271:32:32-p272:64:64-i64:64-i128:128-f80:128-n8:16:32:64-S128"
target triple = "x86_64-pc-linux-gnu"

%struct._X11SDOps = type { %struct._SurfaceDataOps, ptr, ptr, i8, i8, ptr, i64, ptr, ptr, i32, i32, ptr, ptr, i64, i32, i8, i32, i32, i64, %struct.ShmPixmapData }
%struct._SurfaceDataOps = type { ptr, ptr, ptr, ptr, ptr, ptr, ptr }
%struct.ShmPixmapData = type { ptr, i32, i8, i64, i8, i64, i64, i32, i32, i32, i32 }

@awt_display = external global ptr, align 8

; Function Attrs: nounwind uwtable
define internal void @awt_drawArc(ptr noundef %0, i32 noundef %1, ptr noundef %2, i32 noundef %3, i32 noundef %4, i32 noundef %5, i32 noundef %6, i32 noundef %7, i32 noundef %8, i32 noundef %9) #0 {
  %11 = alloca ptr, align 8
  %12 = alloca i32, align 4
  %13 = alloca ptr, align 8
  %14 = alloca i32, align 4
  %15 = alloca i32, align 4
  %16 = alloca i32, align 4
  %17 = alloca i32, align 4
  %18 = alloca i32, align 4
  %19 = alloca i32, align 4
  %20 = alloca i32, align 4
  %21 = alloca i32, align 4
  %22 = alloca i32, align 4
  store ptr %0, ptr %11, align 8
  store i32 %1, ptr %12, align 4
  store ptr %2, ptr %13, align 8
  store i32 %3, ptr %14, align 4
  store i32 %4, ptr %15, align 4
  store i32 %5, ptr %16, align 4
  store i32 %6, ptr %17, align 4
  store i32 %7, ptr %18, align 4
  store i32 %8, ptr %19, align 4
  store i32 %9, ptr %20, align 4
  %23 = load i32, ptr %16, align 4
  %24 = icmp slt i32 %23, 0
  br i1 %24, label %28, label %25

25:                                               ; preds = %10
  %26 = load i32, ptr %17, align 4
  %27 = icmp slt i32 %26, 0
  br i1 %27, label %28, label %29

28:                                               ; preds = %25, %10
  br label %69

29:                                               ; preds = %25
  %30 = load i32, ptr %19, align 4
  %31 = icmp sge i32 %30, 360
  br i1 %31, label %35, label %32

32:                                               ; preds = %29
  %33 = load i32, ptr %19, align 4
  %34 = icmp sle i32 %33, -360
  br i1 %34, label %35, label %36

35:                                               ; preds = %32, %29
  store i32 0, ptr %21, align 4
  store i32 23040, ptr %22, align 4
  br label %42

36:                                               ; preds = %32
  %37 = load i32, ptr %18, align 4
  %38 = srem i32 %37, 360
  %39 = mul nsw i32 %38, 64
  store i32 %39, ptr %21, align 4
  %40 = load i32, ptr %19, align 4
  %41 = mul nsw i32 %40, 64
  store i32 %41, ptr %22, align 4
  br label %42

42:                                               ; preds = %36, %35
  %43 = load i32, ptr %20, align 4
  %44 = icmp eq i32 %43, 0
  br i1 %44, label %45, label %57

45:                                               ; preds = %42
  %46 = load ptr, ptr @awt_display, align 8
  %47 = load i32, ptr %12, align 4
  %48 = sext i32 %47 to i64
  %49 = load ptr, ptr %13, align 8
  %50 = load i32, ptr %14, align 4
  %51 = load i32, ptr %15, align 4
  %52 = load i32, ptr %16, align 4
  %53 = load i32, ptr %17, align 4
  %54 = load i32, ptr %21, align 4
  %55 = load i32, ptr %22, align 4
  %56 = call i32 @XDrawArc(ptr noundef %46, i64 noundef %48, ptr noundef %49, i32 noundef %50, i32 noundef %51, i32 noundef %52, i32 noundef %53, i32 noundef %54, i32 noundef %55)
  br label %69

57:                                               ; preds = %42
  %58 = load ptr, ptr @awt_display, align 8
  %59 = load i32, ptr %12, align 4
  %60 = sext i32 %59 to i64
  %61 = load ptr, ptr %13, align 8
  %62 = load i32, ptr %14, align 4
  %63 = load i32, ptr %15, align 4
  %64 = load i32, ptr %16, align 4
  %65 = load i32, ptr %17, align 4
  %66 = load i32, ptr %21, align 4
  %67 = load i32, ptr %22, align 4
  %68 = call i32 @XFillArc(ptr noundef %58, i64 noundef %60, ptr noundef %61, i32 noundef %62, i32 noundef %63, i32 noundef %64, i32 noundef %65, i32 noundef %66, i32 noundef %67)
  br label %69

69:                                               ; preds = %57, %45, %28
  ret void
}

; Function Attrs: nounwind uwtable
define void @Java_sun_java2d_x11_X11Renderer_XDrawArc(ptr noundef %0, ptr noundef %1, i64 noundef %2, i64 noundef %3, i32 noundef %4, i32 noundef %5, i32 noundef %6, i32 noundef %7, i32 noundef %8, i32 noundef %9) #0 {
  %11 = alloca ptr, align 8
  %12 = alloca ptr, align 8
  %13 = alloca i64, align 8
  %14 = alloca i64, align 8
  %15 = alloca i32, align 4
  %16 = alloca i32, align 4
  %17 = alloca i32, align 4
  %18 = alloca i32, align 4
  %19 = alloca i32, align 4
  %20 = alloca i32, align 4
  %21 = alloca ptr, align 8
  store ptr %0, ptr %11, align 8
  store ptr %1, ptr %12, align 8
  store i64 %2, ptr %13, align 8
  store i64 %3, ptr %14, align 8
  store i32 %4, ptr %15, align 4
  store i32 %5, ptr %16, align 4
  store i32 %6, ptr %17, align 4
  store i32 %7, ptr %18, align 4
  store i32 %8, ptr %19, align 4
  store i32 %9, ptr %20, align 4
  %22 = load i64, ptr %13, align 8
  %23 = inttoptr i64 %22 to ptr
  store ptr %23, ptr %21, align 8
  %24 = load ptr, ptr %21, align 8
  %25 = icmp eq ptr %24, null
  br i1 %25, label %26, label %27

26:                                               ; preds = %10
  br label %43

27:                                               ; preds = %10
  %28 = load ptr, ptr %11, align 8
  %29 = load ptr, ptr %21, align 8
  %30 = getelementptr inbounds %struct._X11SDOps, ptr %29, i32 0, i32 6
  %31 = load i64, ptr %30, align 8
  %32 = trunc i64 %31 to i32
  %33 = load i64, ptr %14, align 8
  %34 = inttoptr i64 %33 to ptr
  %35 = load i32, ptr %15, align 4
  %36 = load i32, ptr %16, align 4
  %37 = load i32, ptr %17, align 4
  %38 = load i32, ptr %18, align 4
  %39 = load i32, ptr %19, align 4
  %40 = load i32, ptr %20, align 4
  call void @awt_drawArc(ptr noundef %28, i32 noundef %32, ptr noundef %34, i32 noundef %35, i32 noundef %36, i32 noundef %37, i32 noundef %38, i32 noundef %39, i32 noundef %40, i32 noundef 0)
  %41 = load ptr, ptr %11, align 8
  %42 = load ptr, ptr %21, align 8
  call void @X11SD_DirectRenderNotify(ptr noundef %41, ptr noundef %42)
  br label %43

43:                                               ; preds = %27, %26
  ret void
}