; Function Attrs: nounwind uwtable
define void @Java_sun_java2d_x11_X11Renderer_XDrawArc(ptr noundef %0, ptr nocapture noundef readnone %1, i64 noundef %2, i64 noundef %3, i32 noundef %4, i32 noundef %5, i32 noundef %6, i32 noundef %7, i32 noundef %8, i32 noundef %9) local_unnamed_addr #0 {
  %11 = icmp eq i64 %2, 0
  br i1 %11, label %28, label %12

12:                                               ; preds = %10
  %13 = inttoptr i64 %2 to ptr
  %14 = getelementptr inbounds i8, ptr %13, i64 88
  %15 = load i64, ptr %14, align 8
  %16 = inttoptr i64 %3 to ptr
  %17 = or i32 %7, %6
  %or.cond.not.i = icmp sgt i32 %17, -1
  br i1 %or.cond.not.i, label %18, label %awt_drawArc.exit

18:                                               ; preds = %12
  %19 = add i32 %9, -360
  %or.cond3.i = icmp ult i32 %19, -719
  br i1 %or.cond3.i, label %24, label %20

20:                                               ; preds = %18
  %21 = srem i32 %8, 360
  %22 = shl nsw i32 %21, 6
  %23 = shl nsw i32 %9, 6
  br label %24

24:                                               ; preds = %20, %18
  %.025.i = phi i32 [ %22, %20 ], [ 0, %18 ]
  %.0.i = phi i32 [ %23, %20 ], [ 23040, %18 ]
  %25 = load ptr, ptr @awt_display, align 8
  %sext = shl i64 %15, 32
  %26 = ashr exact i64 %sext, 32
  %27 = tail call i32 @XDrawArc(ptr noundef %25, i64 noundef %26, ptr noundef %16, i32 noundef %4, i32 noundef %5, i32 noundef %6, i32 noundef %7, i32 noundef %.025.i, i32 noundef %.0.i) #10
  br label %awt_drawArc.exit

awt_drawArc.exit:                                 ; preds = %12, %24
  tail call void @X11SD_DirectRenderNotify(ptr noundef %0, ptr noundef nonnull %13) #10
  br label %28

28:                                               ; preds = %10, %awt_drawArc.exit
  ret void
}